target datalayout = "e-m:e-p270:32:32-p271:32:32-p272:64:64-i64:64-i128:128-f80:128-n8:16:32:64-S128"
target triple = "x86_64-pc-linux-gnu"

%"struct.dmlc::LogMessageFatal::Entry" = type { %"class.std::__cxx11::basic_ostringstream" }
%"class.std::__cxx11::basic_ostringstream" = type { %"class.std::basic_ostream.base", %"class.std::__cxx11::basic_stringbuf", %"class.std::basic_ios" }
%"class.std::basic_ostream.base" = type { ptr }
%"class.std::__cxx11::basic_stringbuf" = type { %"class.std::basic_streambuf", i32, %"class.std::__cxx11::basic_string" }
%"class.std::basic_streambuf" = type { ptr, ptr, ptr, ptr, ptr, ptr, ptr, %"class.std::locale" }
%"class.std::locale" = type { ptr }
%"class.std::__cxx11::basic_string" = type { %"struct.std::__cxx11::basic_string<char>::_Alloc_hider", i64, %union.anon }
%"struct.std::__cxx11::basic_string<char>::_Alloc_hider" = type { ptr }
%union.anon = type { i64, [8 x i8] }
%"class.std::basic_ios" = type { %"class.std::ios_base", ptr, i8, i8, ptr, ptr, ptr, ptr }
%"class.std::ios_base" = type { ptr, i64, i64, i32, i32, i32, ptr, %"struct.std::ios_base::_Words", [8 x %"struct.std::ios_base::_Words"], i32, ptr, %"class.std::locale" }
%"struct.std::ios_base::_Words" = type { ptr, i64 }
%"class.dmlc::LogMessageFatal" = type { i8 }

@.str = private unnamed_addr constant [136 x i8] c"generated/home/dtcxzyw/WorkSpace/Projects/compilers/llvm-opt-benchmark/bench/xgboost/xgboost/dmlc-core/src/io/indexed_recordio_split.cc\00", align 1
@.str.3 = private unnamed_addr constant [3 x i8] c": \00", align 1
@.str.6 = private unnamed_addr constant [49 x i8] c"Check failed: fi->Read(&lrec, sizeof(lrec)) != 0\00", align 1
@.str.7 = private unnamed_addr constant [25 x i8] c"invalid record io format\00", align 1

; Function Attrs: inlinehint mustprogress nounwind uwtable
define linkonce_odr noundef i32 @_ZStorSt12_Ios_IostateS_(i32 noundef %0, i32 noundef %1) #8 comdat {
  %3 = alloca i32, align 4
  %4 = alloca i32, align 4
  store i32 %0, ptr %3, align 4, !tbaa !309
  store i32 %1, ptr %4, align 4, !tbaa !309
  %5 = load i32, ptr %3, align 4, !tbaa !309
  %6 = load i32, ptr %4, align 4, !tbaa !309
  %7 = or i32 %5, %6
  ret i32 %7
}

; Function Attrs: mustprogress nounwind uwtable
define available_externally noundef i32 @_ZNKSt9basic_iosIcSt11char_traitsIcEE7rdstateEv(ptr noundef nonnull align 8 dereferenceable(264) %0) #6 align 2 {
  %2 = alloca ptr, align 8
  store ptr %0, ptr %2, align 8, !tbaa !108
  %3 = load ptr, ptr %2, align 8
  %4 = getelementptr inbounds nuw %"class.std::ios_base", ptr %3, i32 0, i32 5
  %5 = load i32, ptr %4, align 8, !tbaa !310
  ret i32 %5
}

; Function Attrs: mustprogress nounwind uwtable
define linkonce_odr noundef i64 @_ZNSt11char_traitsIcE6lengthEPKc(ptr noundef %0) #6 comdat align 2 {
  %2 = alloca ptr, align 8
  store ptr %0, ptr %2, align 8, !tbaa !94
  %3 = load ptr, ptr %2, align 8, !tbaa !94
  %4 = call i64 @strlen(ptr noundef %3) #3
  ret i64 %4
}

; Function Attrs: mustprogress uwtable
define available_externally void @_ZNSt9basic_iosIcSt11char_traitsIcEE8setstateESt12_Ios_Iostate(ptr noundef nonnull align 8 dereferenceable(264) %0, i32 noundef %1) #4 align 2 {
  %3 = alloca ptr, align 8
  %4 = alloca i32, align 4
  store ptr %0, ptr %3, align 8, !tbaa !108
  store i32 %1, ptr %4, align 4, !tbaa !309
  %5 = load ptr, ptr %3, align 8
  %6 = call noundef i32 @_ZNKSt9basic_iosIcSt11char_traitsIcEE7rdstateEv(ptr noundef nonnull align 8 dereferenceable(264) %5)
  %7 = load i32, ptr %4, align 4, !tbaa !309
  %8 = call noundef i32 @_ZStorSt12_Ios_IostateS_(i32 noundef %6, i32 noundef %7)
  call void @_ZNSt9basic_iosIcSt11char_traitsIcEE5clearESt12_Ios_Iostate(ptr noundef nonnull align 8 dereferenceable(264) %5, i32 noundef %8)
  ret void
}

; Function Attrs: inlinehint mustprogress nounwind uwtable
define linkonce_odr noundef i32 @_ZN4dmlc14RecordIOWriter10DecodeFlagEj(i32 noundef %0) #8 comdat align 2 {
  %2 = alloca i32, align 4
  store i32 %0, ptr %2, align 4, !tbaa !8
  %3 = load i32, ptr %2, align 4, !tbaa !8
  %4 = lshr i32 %3, 29
  %5 = and i32 %4, 7
  ret i32 %5
}

; Function Attrs: inlinehint mustprogress uwtable
define available_externally noundef nonnull align 8 dereferenceable(8) ptr @_ZStlsISt11char_traitsIcEERSt13basic_ostreamIcT_ES5_PKc(ptr noundef nonnull align 8 dereferenceable(8) %0, ptr noundef %1) #9 {
  %3 = alloca ptr, align 8
  %4 = alloca ptr, align 8
  store ptr %0, ptr %3, align 8, !tbaa !92
  store ptr %1, ptr %4, align 8, !tbaa !94
  %5 = load ptr, ptr %4, align 8, !tbaa !94
  %6 = icmp ne ptr %5, null
  br i1 %6, label %13, label %7

7:                                                ; preds = %2
  %8 = load ptr, ptr %3, align 8, !tbaa !92
  %9 = load ptr, ptr %8, align 8, !tbaa !53
  %10 = getelementptr i8, ptr %9, i64 -24
  %11 = load i64, ptr %10, align 8
  %12 = getelementptr inbounds i8, ptr %8, i64 %11
  call void @_ZNSt9basic_iosIcSt11char_traitsIcEE8setstateESt12_Ios_Iostate(ptr noundef nonnull align 8 dereferenceable(264) %12, i32 noundef 1)
  br label %19

13:                                               ; preds = %2
  %14 = load ptr, ptr %3, align 8, !tbaa !92
  %15 = load ptr, ptr %4, align 8, !tbaa !94
  %16 = load ptr, ptr %4, align 8, !tbaa !94
  %17 = call noundef i64 @_ZNSt11char_traitsIcE6lengthEPKc(ptr noundef %16)
  %18 = call noundef nonnull align 8 dereferenceable(8) ptr @_ZSt16__ostream_insertIcSt11char_traitsIcEERSt13basic_ostreamIT_T0_ES6_PKS3_l(ptr noundef nonnull align 8 dereferenceable(8) %14, ptr noundef %15, i64 noundef %17)
  br label %19

19:                                               ; preds = %13, %7
  %20 = load ptr, ptr %3, align 8, !tbaa !92
  ret ptr %20
}

; Function Attrs: mustprogress uwtable
define linkonce_odr noundef nonnull align 8 dereferenceable(112) ptr @_ZN4dmlc15LogMessageFatal6streamB5cxx11Ev(ptr noundef nonnull align 1 dereferenceable(1) %0) #4 comdat align 2 {
  %2 = alloca ptr, align 8
  store ptr %0, ptr %2, align 8, !tbaa !95
  %3 = load ptr, ptr %2, align 8
  %4 = call noundef nonnull align 8 dereferenceable(376) ptr @_ZN4dmlc15LogMessageFatal8GetEntryEv(ptr noundef nonnull align 1 dereferenceable(1) %3)
  %5 = getelementptr inbounds nuw %"struct.dmlc::LogMessageFatal::Entry", ptr %4, i32 0, i32 0
  ret ptr %5
}

; Function Attrs: mustprogress uwtable
define linkonce_odr void @_ZN4dmlc15LogMessageFatalC2EPKci(ptr noundef nonnull align 1 dereferenceable(1) %0, ptr noundef %1, i32 noundef %2) unnamed_addr #4 comdat align 2 {
  %4 = alloca ptr, align 8
  %5 = alloca ptr, align 8
  %6 = alloca i32, align 4
  store ptr %0, ptr %4, align 8, !tbaa !95
  store ptr %1, ptr %5, align 8, !tbaa !94
  store i32 %2, ptr %6, align 4, !tbaa !8
  %7 = load ptr, ptr %4, align 8
  %8 = call noundef nonnull align 8 dereferenceable(376) ptr @_ZN4dmlc15LogMessageFatal8GetEntryEv(ptr noundef nonnull align 1 dereferenceable(1) %7)
  %9 = load ptr, ptr %5, align 8, !tbaa !94
  %10 = load i32, ptr %6, align 4, !tbaa !8
  call void @_ZN4dmlc15LogMessageFatal5Entry4InitEPKci(ptr noundef nonnull align 8 dereferenceable(376) %8, ptr noundef %9, i32 noundef %10)
  ret void
}

; Function Attrs: mustprogress uwtable
define noundef i64 @_ZN4dmlc2io23IndexedRecordIOSplitter15SeekRecordBeginEPNS_6StreamE(ptr noundef nonnull align 8 dereferenceable(5304) %0, ptr noundef %1) unnamed_addr #4 align 2 personality ptr @__gxx_personality_v0 {
  %3 = alloca i64, align 8
  %4 = alloca ptr, align 8
  %5 = alloca ptr, align 8
  %6 = alloca i64, align 8
  %7 = alloca i32, align 4
  %8 = alloca i32, align 4
  %9 = alloca i32, align 4
  %10 = alloca %"class.dmlc::LogMessageFatal", align 1
  %11 = alloca ptr, align 8
  %12 = alloca i32, align 4
  %13 = alloca i32, align 4
  store ptr %0, ptr %4, align 8, !tbaa !3
  store ptr %1, ptr %5, align 8, !tbaa !102
  call void @llvm.lifetime.start.p0(i64 8, ptr %6) #3
  store i64 0, ptr %6, align 8, !tbaa !10
  call void @llvm.lifetime.start.p0(i64 4, ptr %7) #3
  call void @llvm.lifetime.start.p0(i64 4, ptr %8) #3
  br label %14

14:                                               ; preds = %65, %2
  br label %15

15:                                               ; preds = %14
  %16 = load ptr, ptr %5, align 8, !tbaa !102
  %17 = load ptr, ptr %16, align 8, !tbaa !53
  %18 = getelementptr inbounds ptr, ptr %17, i64 0
  %19 = load ptr, ptr %18, align 8
  %20 = call noundef i64 %19(ptr noundef nonnull align 8 dereferenceable(8) %16, ptr noundef %7, i64 noundef 4)
  %21 = icmp eq i64 %20, 0
  br i1 %21, label %22, label %24

22:                                               ; preds = %15
  %23 = load i64, ptr %6, align 8, !tbaa !10
  store i64 %23, ptr %3, align 8
  store i32 1, ptr %9, align 4
  br label %69

24:                                               ; preds = %15
  %25 = load i64, ptr %6, align 8, !tbaa !10
  %26 = add i64 %25, 4
  store i64 %26, ptr %6, align 8, !tbaa !10
  %27 = load i32, ptr %7, align 4, !tbaa !8
  %28 = icmp eq i32 %27, -824761590
  br i1 %28, label %29, label %65

29:                                               ; preds = %24
  %30 = load ptr, ptr %5, align 8, !tbaa !102
  %31 = load ptr, ptr %30, align 8, !tbaa !53
  %32 = getelementptr inbounds ptr, ptr %31, i64 0
  %33 = load ptr, ptr %32, align 8
  %34 = call noundef i64 %33(ptr noundef nonnull align 8 dereferenceable(8) %30, ptr noundef %8, i64 noundef 4)
  %35 = icmp ne i64 %34, 0
  br i1 %35, label %50, label %36

36:                                               ; preds = %29
  call void @llvm.lifetime.start.p0(i64 1, ptr %10) #3
  call void @_ZN4dmlc15LogMessageFatalC2EPKci(ptr noundef nonnull align 1 dereferenceable(1) %10, ptr noundef @.str, i32 noundef 73)
  %37 = invoke noundef nonnull align 8 dereferenceable(112) ptr @_ZN4dmlc15LogMessageFatal6streamB5cxx11Ev(ptr noundef nonnull align 1 dereferenceable(1) %10)
          to label %38 unwind label %45

38:                                               ; preds = %36
  %39 = invoke noundef nonnull align 8 dereferenceable(8) ptr @_ZStlsISt11char_traitsIcEERSt13basic_ostreamIcT_ES5_PKc(ptr noundef nonnull align 8 dereferenceable(8) %37, ptr noundef @.str.6)
          to label %40 unwind label %45

40:                                               ; preds = %38
  %41 = invoke noundef nonnull align 8 dereferenceable(8) ptr @_ZStlsISt11char_traitsIcEERSt13basic_ostreamIcT_ES5_PKc(ptr noundef nonnull align 8 dereferenceable(8) %39, ptr noundef @.str.3)
          to label %42 unwind label %45

42:                                               ; preds = %40
  %43 = invoke noundef nonnull align 8 dereferenceable(8) ptr @_ZStlsISt11char_traitsIcEERSt13basic_ostreamIcT_ES5_PKc(ptr noundef nonnull align 8 dereferenceable(8) %41, ptr noundef @.str.7)
          to label %44 unwind label %45

44:                                               ; preds = %42
  call void @_ZN4dmlc15LogMessageFatalD2Ev(ptr noundef nonnull align 1 dereferenceable(1) %10)
  call void @llvm.lifetime.end.p0(i64 1, ptr %10) #3
  br label %50

45:                                               ; preds = %42, %40, %38, %36
  %46 = landingpad { ptr, i32 }
          cleanup
  %47 = extractvalue { ptr, i32 } %46, 0
  store ptr %47, ptr %11, align 8
  %48 = extractvalue { ptr, i32 } %46, 1
  store i32 %48, ptr %12, align 4
  invoke void @_ZN4dmlc15LogMessageFatalD2Ev(ptr noundef nonnull align 1 dereferenceable(1) %10)
          to label %49 unwind label %76

49:                                               ; preds = %45
  call void @llvm.lifetime.end.p0(i64 1, ptr %10) #3
  call void @llvm.lifetime.end.p0(i64 4, ptr %8) #3
  call void @llvm.lifetime.end.p0(i64 4, ptr %7) #3
  call void @llvm.lifetime.end.p0(i64 8, ptr %6) #3
  br label %71

50:                                               ; preds = %44, %29
  %51 = load i64, ptr %6, align 8, !tbaa !10
  %52 = add i64 %51, 4
  store i64 %52, ptr %6, align 8, !tbaa !10
  call void @llvm.lifetime.start.p0(i64 4, ptr %13) #3
  %53 = load i32, ptr %8, align 4, !tbaa !8
  %54 = call noundef i32 @_ZN4dmlc14RecordIOWriter10DecodeFlagEj(i32 noundef %53)
  store i32 %54, ptr %13, align 4, !tbaa !8
  %55 = load i32, ptr %13, align 4, !tbaa !8
  %56 = icmp eq i32 %55, 0
  br i1 %56, label %60, label %57

57:                                               ; preds = %50
  %58 = load i32, ptr %13, align 4, !tbaa !8
  %59 = icmp eq i32 %58, 1
  br i1 %59, label %60, label %61

60:                                               ; preds = %57, %50
  store i32 3, ptr %9, align 4
  br label %62

61:                                               ; preds = %57
  store i32 0, ptr %9, align 4
  br label %62

62:                                               ; preds = %61, %60
  call void @llvm.lifetime.end.p0(i64 4, ptr %13) #3
  %63 = load i32, ptr %9, align 4
  switch i32 %63, label %79 [
    i32 0, label %64
    i32 3, label %66
  ]

64:                                               ; preds = %62
  br label %65

65:                                               ; preds = %64, %24
  br label %14, !llvm.loop !115

66:                                               ; preds = %62
  %67 = load i64, ptr %6, align 8, !tbaa !10
  %68 = sub i64 %67, 8
  store i64 %68, ptr %3, align 8
  store i32 1, ptr %9, align 4
  br label %69

69:                                               ; preds = %66, %22
  call void @llvm.lifetime.end.p0(i64 4, ptr %8) #3
  call void @llvm.lifetime.end.p0(i64 4, ptr %7) #3
  call void @llvm.lifetime.end.p0(i64 8, ptr %6) #3
  %70 = load i64, ptr %3, align 8
  ret i64 %70

71:                                               ; preds = %49
  %72 = load ptr, ptr %11, align 8
  %73 = load i32, ptr %12, align 4
  %74 = insertvalue { ptr, i32 } poison, ptr %72, 0
  %75 = insertvalue { ptr, i32 } %74, i32 %73, 1
  resume { ptr, i32 } %75

76:                                               ; preds = %45
  %77 = landingpad { ptr, i32 }
          catch ptr null
  %78 = extractvalue { ptr, i32 } %77, 0
  call void @__clang_call_terminate(ptr %78) #22
  unreachable

79:                                               ; preds = %62
  unreachable
}